(dp0
I0
(icore.engine
StatCollection
p1
(dp2
S'status'
p3
I200
sS'latency'
p4
F5.155270099639893
sS'avg_connect_latency'
p5
F5.155184030532837
sS'count'
p6
I1
sS'total_connect_latency'
p7
F5.155184030532837
sS'avg_latency'
p8
F5.155270099639893
sS'reason'
p9
S'OK'
p10
sS'agent_start_time'
p11
S'23:20:16'
p12
sS'error_count'
p13
I0
sS'total_latency'
p14
F5.155270099639893
sS'total_bytes'
p15
I71
sbs.