(dp0
I0
(icore.engine
StatCollection
p1
(dp2
S'status'
p3
I200
sS'latency'
p4
F10.01551604270935
sS'avg_connect_latency'
p5
F9.301200594220843
sS'count'
p6
I7
sS'total_connect_latency'
p7
F65.1084041595459
sS'avg_latency'
p8
F9.301270859582084
sS'reason'
p9
S'OK'
p10
sS'agent_start_time'
p11
S'23:32:18'
p12
sS'error_count'
p13
I0
sS'total_latency'
p14
F65.10889601707458
sS'total_bytes'
p15
I497
sbsI1
(icore.engine
StatCollection
p16
(dp17
g3
I200
sg4
F10.007090091705322
sg5
F10.015475647790092
sg6
I7
sg7
F70.10832953453064
sg8
F10.015561614717756
sg9
S'OK'
p18
sg11
S'23:32:18'
p19
sg13
I0
sg14
F70.10893130302429
sg15
I497
sbs.